target datalayout = "e-m:e-p270:32:32-p271:32:32-p272:64:64-i64:64-i128:128-f80:128-n8:16:32:64-S128"
target triple = "x86_64-pc-linux-gnu"

%struct.Vec_Int_t_ = type { i32, i32, ptr }
%struct.Prs_Ntk_t_ = type { i32, i8, ptr, ptr, ptr, %struct.Vec_Int_t_, %struct.Vec_Int_t_, %struct.Vec_Int_t_, %struct.Vec_Int_t_, %struct.Vec_Int_t_, %struct.Vec_Int_t_, %struct.Vec_Int_t_, %struct.Vec_Int_t_, %struct.Vec_Int_t_, %struct.Vec_Int_t_, %struct.Vec_Int_t_, %struct.Vec_Int_t_, %struct.Vec_Int_t_ }
%struct.Hash_IntObj_t_ = type { i32, i32, i32, i32 }
%struct.Hash_IntMan_t_ = type { ptr, ptr, i32 }

@.str.2 = private unnamed_addr constant [1 x i8] zeroinitializer, align 1
@.str.57 = private unnamed_addr constant [3 x i8] c"%s\00", align 1
@.str.58 = private unnamed_addr constant [3 x i8] c", \00", align 1
@.str.166 = private unnamed_addr constant [5 x i8] c"%s%s\00", align 1
@.str.167 = private unnamed_addr constant [5 x i8] c"[%d]\00", align 1
@.str.168 = private unnamed_addr constant [8 x i8] c"[%d:%d]\00", align 1
@.str.169 = private unnamed_addr constant [2 x i8] c"{\00", align 1
@.str.170 = private unnamed_addr constant [2 x i8] c"}\00", align 1
@Prs_CatSignals.V = internal global %struct.Vec_Int_t_ zeroinitializer, align 8

; Function Attrs: inlinehint nounwind uwtable
define internal ptr @Vec_IntEntryP(ptr noundef %0, i32 noundef %1) #3 {
  %3 = alloca ptr, align 8
  %4 = alloca i32, align 4
  store ptr %0, ptr %3, align 8, !tbaa !29
  store i32 %1, ptr %4, align 4, !tbaa !12
  %5 = load ptr, ptr %3, align 8, !tbaa !29
  %6 = getelementptr inbounds nuw %struct.Vec_Int_t_, ptr %5, i32 0, i32 2
  %7 = load ptr, ptr %6, align 8, !tbaa !33
  %8 = load i32, ptr %4, align 4, !tbaa !12
  %9 = sext i32 %8 to i64
  %10 = getelementptr inbounds i32, ptr %7, i64 %9
  ret ptr %10
}

; Function Attrs: inlinehint nounwind uwtable
define internal i32 @Vec_IntSize(ptr noundef %0) #3 {
  %2 = alloca ptr, align 8
  store ptr %0, ptr %2, align 8, !tbaa !29
  %3 = load ptr, ptr %2, align 8, !tbaa !29
  %4 = getelementptr inbounds nuw %struct.Vec_Int_t_, ptr %3, i32 0, i32 1
  %5 = load i32, ptr %4, align 4, !tbaa !32
  ret i32 %5
}

; Function Attrs: inlinehint nounwind uwtable
define internal ptr @Prs_CatArray(ptr noundef %0, i32 noundef %1) #3 {
  %3 = alloca ptr, align 8
  %4 = alloca i32, align 4
  store ptr %0, ptr %3, align 8, !tbaa !10
  store i32 %1, ptr %4, align 4, !tbaa !12
  %5 = load ptr, ptr %3, align 8, !tbaa !10
  %6 = getelementptr inbounds nuw %struct.Prs_Ntk_t_, ptr %5, i32 0, i32 15
  %7 = load i32, ptr %4, align 4, !tbaa !12
  %8 = add nsw i32 %7, 1
  %9 = call ptr @Vec_IntEntryP(ptr noundef %6, i32 noundef %8)
  ret ptr %9
}

; Function Attrs: inlinehint nounwind uwtable
define internal i32 @Prs_CatSize(ptr noundef %0, i32 noundef %1) #3 {
  %3 = alloca ptr, align 8
  %4 = alloca i32, align 4
  store ptr %0, ptr %3, align 8, !tbaa !10
  store i32 %1, ptr %4, align 4, !tbaa !12
  %5 = load ptr, ptr %3, align 8, !tbaa !10
  %6 = getelementptr inbounds nuw %struct.Prs_Ntk_t_, ptr %5, i32 0, i32 15
  %7 = load i32, ptr %4, align 4, !tbaa !12
  %8 = call i32 @Vec_IntEntry(ptr noundef %6, i32 noundef %7)
  ret i32 %8
}

; Function Attrs: inlinehint nounwind uwtable
define internal ptr @Hash_IntObj(ptr noundef %0, i32 noundef %1) #3 {
  %3 = alloca ptr, align 8
  %4 = alloca i32, align 4
  store ptr %0, ptr %3, align 8, !tbaa !90
  store i32 %1, ptr %4, align 4, !tbaa !12
  %5 = load i32, ptr %4, align 4, !tbaa !12
  %6 = icmp ne i32 %5, 0
  br i1 %6, label %7, label %14

7:                                                ; preds = %2
  %8 = load ptr, ptr %3, align 8, !tbaa !90
  %9 = getelementptr inbounds nuw %struct.Hash_IntMan_t_, ptr %8, i32 0, i32 1
  %10 = load ptr, ptr %9, align 8, !tbaa !94
  %11 = load i32, ptr %4, align 4, !tbaa !12
  %12 = mul nsw i32 4, %11
  %13 = call ptr @Vec_IntEntryP(ptr noundef %10, i32 noundef %12)
  br label %15

14:                                               ; preds = %2
  br label %15

15:                                               ; preds = %14, %7
  %16 = phi ptr [ %13, %7 ], [ null, %14 ]
  ret ptr %16
}

; Function Attrs: nounwind uwtable
define void @Prs_ManWriteVerilogArray(ptr noundef %0, ptr noundef %1, ptr noundef %2, i32 noundef %3) #0 {
  %5 = alloca ptr, align 8
  %6 = alloca ptr, align 8
  %7 = alloca ptr, align 8
  %8 = alloca i32, align 4
  %9 = alloca i32, align 4
  %10 = alloca i32, align 4
  %11 = alloca i32, align 4
  store ptr %0, ptr %5, align 8, !tbaa !27
  store ptr %1, ptr %6, align 8, !tbaa !10
  store ptr %2, ptr %7, align 8, !tbaa !29
  store i32 %3, ptr %8, align 4, !tbaa !12
  call void @llvm.lifetime.start.p0(i64 4, ptr %9) #12
  call void @llvm.lifetime.start.p0(i64 4, ptr %10) #12
  call void @llvm.lifetime.start.p0(i64 4, ptr %11) #12
  store i32 1, ptr %11, align 4, !tbaa !12
  store i32 0, ptr %9, align 4, !tbaa !12
  br label %12

12:                                               ; preds = %40, %4
  %13 = load i32, ptr %9, align 4, !tbaa !12
  %14 = load ptr, ptr %7, align 8, !tbaa !29
  %15 = call i32 @Vec_IntSize(ptr noundef %14)
  %16 = icmp slt i32 %13, %15
  br i1 %16, label %17, label %21

17:                                               ; preds = %12
  %18 = load ptr, ptr %7, align 8, !tbaa !29
  %19 = load i32, ptr %9, align 4, !tbaa !12
  %20 = call i32 @Vec_IntEntry(ptr noundef %18, i32 noundef %19)
  store i32 %20, ptr %10, align 4, !tbaa !12
  br label %21

21:                                               ; preds = %17, %12
  %22 = phi i1 [ false, %12 ], [ true, %17 ]
  br i1 %22, label %23, label %43

23:                                               ; preds = %21
  %24 = load i32, ptr %8, align 4, !tbaa !12
  %25 = icmp ne i32 %24, 0
  br i1 %25, label %26, label %31

26:                                               ; preds = %23
  %27 = load i32, ptr %9, align 4, !tbaa !12
  %28 = and i32 %27, 1
  %29 = icmp ne i32 %28, 0
  br i1 %29, label %31, label %30

30:                                               ; preds = %26
  br label %40

31:                                               ; preds = %26, %23
  %32 = load ptr, ptr %5, align 8, !tbaa !27
  %33 = load i32, ptr %11, align 4, !tbaa !12
  %34 = icmp ne i32 %33, 0
  %35 = select i1 %34, ptr @.str.2, ptr @.str.58
  %36 = call i32 (ptr, ptr, ...) @fprintf(ptr noundef %32, ptr noundef @.str.57, ptr noundef %35) #12
  %37 = load ptr, ptr %5, align 8, !tbaa !27
  %38 = load ptr, ptr %6, align 8, !tbaa !10
  %39 = load i32, ptr %10, align 4, !tbaa !12
  call void @Prs_ManWriteVerilogSignal(ptr noundef %37, ptr noundef %38, i32 noundef %39)
  store i32 0, ptr %11, align 4, !tbaa !12
  br label %40

40:                                               ; preds = %31, %30
  %41 = load i32, ptr %9, align 4, !tbaa !12
  %42 = add nsw i32 %41, 1
  store i32 %42, ptr %9, align 4, !tbaa !12
  br label %12, !llvm.loop !31

43:                                               ; preds = %21
  call void @llvm.lifetime.end.p0(i64 4, ptr %11) #12
  call void @llvm.lifetime.end.p0(i64 4, ptr %10) #12
  call void @llvm.lifetime.end.p0(i64 4, ptr %9) #12
  ret void
}

; Function Attrs: inlinehint nounwind uwtable
define internal ptr @Prs_CatSignals(ptr noundef %0, i32 noundef %1) #3 {
  %3 = alloca ptr, align 8
  %4 = alloca i32, align 4
  store ptr %0, ptr %3, align 8, !tbaa !10
  store i32 %1, ptr %4, align 4, !tbaa !12
  %5 = load ptr, ptr %3, align 8, !tbaa !10
  %6 = load i32, ptr %4, align 4, !tbaa !12
  %7 = call i32 @Prs_CatSize(ptr noundef %5, i32 noundef %6)
  store i32 %7, ptr @Prs_CatSignals.V, align 8, !tbaa !96
  store i32 %7, ptr getelementptr inbounds nuw (%struct.Vec_Int_t_, ptr @Prs_CatSignals.V, i32 0, i32 1), align 4, !tbaa !32
  %8 = load ptr, ptr %3, align 8, !tbaa !10
  %9 = load i32, ptr %4, align 4, !tbaa !12
  %10 = call ptr @Prs_CatArray(ptr noundef %8, i32 noundef %9)
  store ptr %10, ptr getelementptr inbounds nuw (%struct.Vec_Int_t_, ptr @Prs_CatSignals.V, i32 0, i32 2), align 8, !tbaa !33
  ret ptr @Prs_CatSignals.V
}

; Function Attrs: inlinehint nounwind uwtable
define internal i32 @Hash_IntObjData1(ptr noundef %0, i32 noundef %1) #3 {
  %3 = alloca ptr, align 8
  %4 = alloca i32, align 4
  store ptr %0, ptr %3, align 8, !tbaa !90
  store i32 %1, ptr %4, align 4, !tbaa !12
  %5 = load ptr, ptr %3, align 8, !tbaa !90
  %6 = load i32, ptr %4, align 4, !tbaa !12
  %7 = call ptr @Hash_IntObj(ptr noundef %5, i32 noundef %6)
  %8 = getelementptr inbounds nuw %struct.Hash_IntObj_t_, ptr %7, i32 0, i32 1
  %9 = load i32, ptr %8, align 4, !tbaa !93
  ret i32 %9
}

; Function Attrs: inlinehint nounwind uwtable
define internal i32 @Hash_IntObjData0(ptr noundef %0, i32 noundef %1) #3 {
  %3 = alloca ptr, align 8
  %4 = alloca i32, align 4
  store ptr %0, ptr %3, align 8, !tbaa !90
  store i32 %1, ptr %4, align 4, !tbaa !12
  %5 = load ptr, ptr %3, align 8, !tbaa !90
  %6 = load i32, ptr %4, align 4, !tbaa !12
  %7 = call ptr @Hash_IntObj(ptr noundef %5, i32 noundef %6)
  %8 = getelementptr inbounds nuw %struct.Hash_IntObj_t_, ptr %7, i32 0, i32 0
  %9 = load i32, ptr %8, align 4, !tbaa !91
  ret i32 %9
}

; Function Attrs: inlinehint nounwind uwtable
define internal i32 @Vec_IntEntry(ptr noundef %0, i32 noundef %1) #3 {
  %3 = alloca ptr, align 8
  %4 = alloca i32, align 4
  store ptr %0, ptr %3, align 8, !tbaa !29
  store i32 %1, ptr %4, align 4, !tbaa !12
  %5 = load ptr, ptr %3, align 8, !tbaa !29
  %6 = getelementptr inbounds nuw %struct.Vec_Int_t_, ptr %5, i32 0, i32 2
  %7 = load ptr, ptr %6, align 8, !tbaa !33
  %8 = load i32, ptr %4, align 4, !tbaa !12
  %9 = sext i32 %8 to i64
  %10 = getelementptr inbounds i32, ptr %7, i64 %9
  %11 = load i32, ptr %10, align 4, !tbaa !12
  ret i32 %11
}

; Function Attrs: nounwind uwtable
define internal void @Prs_ManWriteVerilogConcat(ptr noundef %0, ptr noundef %1, i32 noundef %2) #0 {
  %4 = alloca ptr, align 8
  %5 = alloca ptr, align 8
  %6 = alloca i32, align 4
  %7 = alloca ptr, align 8
  store ptr %0, ptr %4, align 8, !tbaa !27
  store ptr %1, ptr %5, align 8, !tbaa !10
  store i32 %2, ptr %6, align 4, !tbaa !12
  call void @llvm.lifetime.start.p0(i64 8, ptr %7) #12
  %8 = load ptr, ptr %5, align 8, !tbaa !10
  %9 = load i32, ptr %6, align 4, !tbaa !12
  %10 = call ptr @Prs_CatSignals(ptr noundef %8, i32 noundef %9)
  store ptr %10, ptr %7, align 8, !tbaa !29
  %11 = load ptr, ptr %4, align 8, !tbaa !27
  %12 = call i32 (ptr, ptr, ...) @fprintf(ptr noundef %11, ptr noundef @.str.169) #12
  %13 = load ptr, ptr %4, align 8, !tbaa !27
  %14 = load ptr, ptr %5, align 8, !tbaa !10
  %15 = load ptr, ptr %7, align 8, !tbaa !29
  call void @Prs_ManWriteVerilogArray(ptr noundef %13, ptr noundef %14, ptr noundef %15, i32 noundef 0)
  %16 = load ptr, ptr %4, align 8, !tbaa !27
  %17 = call i32 (ptr, ptr, ...) @fprintf(ptr noundef %16, ptr noundef @.str.170) #12
  call void @llvm.lifetime.end.p0(i64 8, ptr %7) #12
  ret void
}

; Function Attrs: inlinehint nounwind uwtable
define internal ptr @Prs_ManWriteRange(ptr noundef %0, i32 noundef %1, i32 noundef %2) #3 {
  %4 = alloca ptr, align 8
  %5 = alloca ptr, align 8
  %6 = alloca i32, align 4
  %7 = alloca i32, align 4
  %8 = alloca i32, align 4
  %9 = alloca i32, align 4
  %10 = alloca i32, align 4
  store ptr %0, ptr %5, align 8, !tbaa !10
  store i32 %1, ptr %6, align 4, !tbaa !12
  store i32 %2, ptr %7, align 4, !tbaa !12
  call void @llvm.lifetime.start.p0(i64 4, ptr %8) #12
  %11 = load i32, ptr %6, align 4, !tbaa !12
  %12 = icmp ne i32 %11, 0
  br i1 %12, label %13, label %19

13:                                               ; preds = %3
  %14 = load ptr, ptr %5, align 8, !tbaa !10
  %15 = getelementptr inbounds nuw %struct.Prs_Ntk_t_, ptr %14, i32 0, i32 4
  %16 = load ptr, ptr %15, align 8, !tbaa !89
  %17 = load i32, ptr %6, align 4, !tbaa !12
  %18 = call i32 @Hash_IntObjData0(ptr noundef %16, i32 noundef %17)
  br label %20

19:                                               ; preds = %3
  br label %20

20:                                               ; preds = %19, %13
  %21 = phi i32 [ %18, %13 ], [ 0, %19 ]
  store i32 %21, ptr %8, align 4, !tbaa !12
  call void @llvm.lifetime.start.p0(i64 4, ptr %9) #12
  %22 = load i32, ptr %6, align 4, !tbaa !12
  %23 = icmp ne i32 %22, 0
  br i1 %23, label %24, label %30

24:                                               ; preds = %20
  %25 = load ptr, ptr %5, align 8, !tbaa !10
  %26 = getelementptr inbounds nuw %struct.Prs_Ntk_t_, ptr %25, i32 0, i32 4
  %27 = load ptr, ptr %26, align 8, !tbaa !89
  %28 = load i32, ptr %6, align 4, !tbaa !12
  %29 = call i32 @Hash_IntObjData1(ptr noundef %27, i32 noundef %28)
  br label %31

30:                                               ; preds = %20
  br label %31

31:                                               ; preds = %30, %24
  %32 = phi i32 [ %29, %24 ], [ 0, %30 ]
  store i32 %32, ptr %9, align 4, !tbaa !12
  %33 = load i32, ptr %8, align 4, !tbaa !12
  %34 = load i32, ptr %9, align 4, !tbaa !12
  %35 = icmp eq i32 %33, %34
  br i1 %35, label %36, label %46

36:                                               ; preds = %31
  %37 = load i32, ptr %7, align 4, !tbaa !12
  %38 = icmp ne i32 %37, 0
  br i1 %38, label %39, label %46

39:                                               ; preds = %36
  %40 = load ptr, ptr %5, align 8, !tbaa !10
  %41 = getelementptr inbounds nuw %struct.Prs_Ntk_t_, ptr %40, i32 0, i32 2
  %42 = load ptr, ptr %41, align 8, !tbaa !14
  %43 = call ptr @Abc_NamBuffer(ptr noundef %42)
  %44 = load i32, ptr %9, align 4, !tbaa !12
  %45 = call ptr (ptr, ptr, ...) @Vec_StrPrintF(ptr noundef %43, ptr noundef @.str.167, i32 noundef %44)
  store ptr %45, ptr %4, align 8
  store i32 1, ptr %10, align 4
  br label %54

46:                                               ; preds = %36, %31
  %47 = load ptr, ptr %5, align 8, !tbaa !10
  %48 = getelementptr inbounds nuw %struct.Prs_Ntk_t_, ptr %47, i32 0, i32 2
  %49 = load ptr, ptr %48, align 8, !tbaa !14
  %50 = call ptr @Abc_NamBuffer(ptr noundef %49)
  %51 = load i32, ptr %8, align 4, !tbaa !12
  %52 = load i32, ptr %9, align 4, !tbaa !12
  %53 = call ptr (ptr, ptr, ...) @Vec_StrPrintF(ptr noundef %50, ptr noundef @.str.168, i32 noundef %51, i32 noundef %52)
  store ptr %53, ptr %4, align 8
  store i32 1, ptr %10, align 4
  br label %54

54:                                               ; preds = %46, %39
  call void @llvm.lifetime.end.p0(i64 4, ptr %9) #12
  call void @llvm.lifetime.end.p0(i64 4, ptr %8) #12
  %55 = load ptr, ptr %4, align 8
  ret ptr %55
}

; Function Attrs: inlinehint nounwind uwtable
define internal i32 @Prs_SliceRange(ptr noundef %0, i32 noundef %1) #3 {
  %3 = alloca ptr, align 8
  %4 = alloca i32, align 4
  store ptr %0, ptr %3, align 8, !tbaa !10
  store i32 %1, ptr %4, align 4, !tbaa !12
  %5 = load ptr, ptr %3, align 8, !tbaa !10
  %6 = getelementptr inbounds nuw %struct.Prs_Ntk_t_, ptr %5, i32 0, i32 14
  %7 = load i32, ptr %4, align 4, !tbaa !12
  %8 = add nsw i32 %7, 1
  %9 = call i32 @Vec_IntEntry(ptr noundef %6, i32 noundef %8)
  ret i32 %9
}

; Function Attrs: inlinehint nounwind uwtable
define internal i32 @Prs_SliceName(ptr noundef %0, i32 noundef %1) #3 {
  %3 = alloca ptr, align 8
  %4 = alloca i32, align 4
  store ptr %0, ptr %3, align 8, !tbaa !10
  store i32 %1, ptr %4, align 4, !tbaa !12
  %5 = load ptr, ptr %3, align 8, !tbaa !10
  %6 = getelementptr inbounds nuw %struct.Prs_Ntk_t_, ptr %5, i32 0, i32 14
  %7 = load i32, ptr %4, align 4, !tbaa !12
  %8 = call i32 @Vec_IntEntry(ptr noundef %6, i32 noundef %7)
  ret i32 %8
}

; Function Attrs: inlinehint nounwind uwtable
define internal ptr @Prs_NtkConst(ptr noundef %0, i32 noundef %1) #3 {
  %3 = alloca ptr, align 8
  %4 = alloca i32, align 4
  store ptr %0, ptr %3, align 8, !tbaa !10
  store i32 %1, ptr %4, align 4, !tbaa !12
  %5 = load ptr, ptr %3, align 8, !tbaa !10
  %6 = getelementptr inbounds nuw %struct.Prs_Ntk_t_, ptr %5, i32 0, i32 3
  %7 = load ptr, ptr %6, align 8, !tbaa !88
  %8 = load i32, ptr %4, align 4, !tbaa !12
  %9 = call ptr @Abc_NamStr(ptr noundef %7, i32 noundef %8)
  ret ptr %9
}

; Function Attrs: inlinehint nounwind uwtable
define internal i32 @Abc_Lit2Att2(i32 noundef %0) #3 {
  %2 = alloca i32, align 4
  store i32 %0, ptr %2, align 4, !tbaa !12
  %3 = load i32, ptr %2, align 4, !tbaa !12
  %4 = and i32 %3, 3
  ret i32 %4
}

; Function Attrs: inlinehint nounwind uwtable
define internal i32 @Abc_Lit2Var2(i32 noundef %0) #3 {
  %2 = alloca i32, align 4
  store i32 %0, ptr %2, align 4, !tbaa !12
  %3 = load i32, ptr %2, align 4, !tbaa !12
  %4 = ashr i32 %3, 2
  ret i32 %4
}

; Function Attrs: nounwind uwtable
define internal void @Prs_ManWriteVerilogSignal(ptr noundef %0, ptr noundef %1, i32 noundef %2) #0 {
  %4 = alloca ptr, align 8
  %5 = alloca ptr, align 8
  %6 = alloca i32, align 4
  %7 = alloca i32, align 4
  %8 = alloca i32, align 4
  store ptr %0, ptr %4, align 8, !tbaa !27
  store ptr %1, ptr %5, align 8, !tbaa !10
  store i32 %2, ptr %6, align 4, !tbaa !12
  call void @llvm.lifetime.start.p0(i64 4, ptr %7) #12
  %9 = load i32, ptr %6, align 4, !tbaa !12
  %10 = call i32 @Abc_Lit2Var2(i32 noundef %9)
  store i32 %10, ptr %7, align 4, !tbaa !12
  call void @llvm.lifetime.start.p0(i64 4, ptr %8) #12
  %11 = load i32, ptr %6, align 4, !tbaa !12
  %12 = call i32 @Abc_Lit2Att2(i32 noundef %11)
  store i32 %12, ptr %8, align 4, !tbaa !12
  %13 = load i32, ptr %8, align 4, !tbaa !12
  %14 = icmp eq i32 %13, 0
  br i1 %14, label %15, label %21

15:                                               ; preds = %3
  %16 = load ptr, ptr %4, align 8, !tbaa !27
  %17 = load ptr, ptr %5, align 8, !tbaa !10
  %18 = load i32, ptr %7, align 4, !tbaa !12
  %19 = call ptr @Prs_ObjGetName(ptr noundef %17, i32 noundef %18)
  %20 = call i32 (ptr, ptr, ...) @fprintf(ptr noundef %16, ptr noundef @.str.57, ptr noundef %19) #12
  br label %57

21:                                               ; preds = %3
  %22 = load i32, ptr %8, align 4, !tbaa !12
  %23 = icmp eq i32 %22, 2
  br i1 %23, label %24, label %30

24:                                               ; preds = %21
  %25 = load ptr, ptr %4, align 8, !tbaa !27
  %26 = load ptr, ptr %5, align 8, !tbaa !10
  %27 = load i32, ptr %7, align 4, !tbaa !12
  %28 = call ptr @Prs_NtkConst(ptr noundef %26, i32 noundef %27)
  %29 = call i32 (ptr, ptr, ...) @fprintf(ptr noundef %25, ptr noundef @.str.57, ptr noundef %28) #12
  br label %56

30:                                               ; preds = %21
  %31 = load i32, ptr %8, align 4, !tbaa !12
  %32 = icmp eq i32 %31, 1
  br i1 %32, label %33, label %46

33:                                               ; preds = %30
  %34 = load ptr, ptr %4, align 8, !tbaa !27
  %35 = load ptr, ptr %5, align 8, !tbaa !10
  %36 = load ptr, ptr %5, align 8, !tbaa !10
  %37 = load i32, ptr %7, align 4, !tbaa !12
  %38 = call i32 @Prs_SliceName(ptr noundef %36, i32 noundef %37)
  %39 = call ptr @Prs_ObjGetName(ptr noundef %35, i32 noundef %38)
  %40 = load ptr, ptr %5, align 8, !tbaa !10
  %41 = load ptr, ptr %5, align 8, !tbaa !10
  %42 = load i32, ptr %7, align 4, !tbaa !12
  %43 = call i32 @Prs_SliceRange(ptr noundef %41, i32 noundef %42)
  %44 = call ptr @Prs_ManWriteRange(ptr noundef %40, i32 noundef %43, i32 noundef 1)
  %45 = call i32 (ptr, ptr, ...) @fprintf(ptr noundef %34, ptr noundef @.str.166, ptr noundef %39, ptr noundef %44) #12
  br label %55

46:                                               ; preds = %30
  %47 = load i32, ptr %8, align 4, !tbaa !12
  %48 = icmp eq i32 %47, 3
  br i1 %48, label %49, label %53

49:                                               ; preds = %46
  %50 = load ptr, ptr %4, align 8, !tbaa !27
  %51 = load ptr, ptr %5, align 8, !tbaa !10
  %52 = load i32, ptr %7, align 4, !tbaa !12
  call void @Prs_ManWriteVerilogConcat(ptr noundef %50, ptr noundef %51, i32 noundef %52)
  br label %54

53:                                               ; preds = %46
  br label %54

54:                                               ; preds = %53, %49
  br label %55

55:                                               ; preds = %54, %33
  br label %56

56:                                               ; preds = %55, %24
  br label %57

57:                                               ; preds = %56, %15
  call void @llvm.lifetime.end.p0(i64 4, ptr %8) #12
  call void @llvm.lifetime.end.p0(i64 4, ptr %7) #12
  ret void
}