; Function Attrs: nounwind uwtable
define internal fastcc void @Prs_ManWriteVerilogSignal(ptr noundef captures(none) %0, ptr noundef readonly captures(none) %1, i32 noundef %2) unnamed_addr #2 {
  %4 = ashr i32 %2, 2
  %5 = and i32 %2, 3
  switch i32 %5, label %default.unreachable [
    i32 0, label %6
    i32 2, label %8
    i32 1, label %11
    i32 3, label %45
  ]

6:                                                ; preds = %3
  %7 = tail call ptr @Prs_ObjGetName(ptr noundef %1, i32 noundef %4)
  %fputs21 = tail call i32 @fputs(ptr %7, ptr %0)
  br label %56

8:                                                ; preds = %3
  %9 = getelementptr i8, ptr %1, i64 16
  %.val = load ptr, ptr %9, align 8, !tbaa !26
  %10 = tail call ptr @Abc_NamStr(ptr noundef %.val, i32 noundef range(i32 -536870912, 536870912) %4) #16
  %fputs = tail call i32 @fputs(ptr %10, ptr %0)
  br label %56

11:                                               ; preds = %3
  %12 = getelementptr i8, ptr %1, i64 184
  %.val22 = load ptr, ptr %12, align 8, !tbaa !23
  %13 = sext i32 %4 to i64
  %14 = getelementptr inbounds i32, ptr %.val22, i64 %13
  %15 = load i32, ptr %14, align 4, !tbaa !24
  %16 = tail call ptr @Prs_ObjGetName(ptr noundef %1, i32 noundef %15)
  %.val23 = load ptr, ptr %12, align 8, !tbaa !23
  %17 = getelementptr i32, ptr %.val23, i64 %13
  %18 = getelementptr i8, ptr %17, i64 4
  %19 = load i32, ptr %18, align 4, !tbaa !24
  %.not.i = icmp eq i32 %19, 0
  br i1 %.not.i, label %.thread.i.thread, label %.thread.i

.thread.i.thread:                                 ; preds = %11
  %20 = getelementptr inbounds nuw i8, ptr %1, i64 8
  %21 = load ptr, ptr %20, align 8, !tbaa !8
  %22 = tail call ptr @Abc_NamBuffer(ptr noundef %21) #16
  br label %38

.thread.i:                                        ; preds = %11
  %23 = getelementptr inbounds nuw i8, ptr %1, i64 24
  %24 = load ptr, ptr %23, align 8, !tbaa !27
  %25 = getelementptr inbounds nuw i8, ptr %24, i64 8
  %26 = load ptr, ptr %25, align 8, !tbaa !28
  %27 = shl nsw i32 %19, 2
  %28 = getelementptr i8, ptr %26, i64 8
  %.val.i.i.i = load ptr, ptr %28, align 8, !tbaa !23
  %29 = sext i32 %27 to i64
  %30 = getelementptr inbounds i32, ptr %.val.i.i.i, i64 %29
  %31 = load i32, ptr %30, align 4, !tbaa !31
  %32 = getelementptr inbounds nuw i8, ptr %30, i64 4
  %33 = load i32, ptr %32, align 4, !tbaa !33
  %34 = icmp eq i32 %31, %33
  %35 = getelementptr inbounds nuw i8, ptr %1, i64 8
  %36 = load ptr, ptr %35, align 8, !tbaa !8
  %37 = tail call ptr @Abc_NamBuffer(ptr noundef %36) #16
  br i1 %34, label %38, label %42

38:                                               ; preds = %.thread.i.thread, %.thread.i
  %39 = phi ptr [ %22, %.thread.i.thread ], [ %37, %.thread.i ]
  %40 = phi i32 [ 0, %.thread.i.thread ], [ %31, %.thread.i ]
  %41 = tail call ptr (ptr, ptr, ...) @Vec_StrPrintF(ptr noundef %39, ptr noundef nonnull @.str.167, i32 noundef %40)
  br label %Prs_ManWriteRange.exit

42:                                               ; preds = %.thread.i
  %43 = tail call ptr (ptr, ptr, ...) @Vec_StrPrintF(ptr noundef %37, ptr noundef nonnull @.str.168, i32 noundef %31, i32 noundef %33)
  br label %Prs_ManWriteRange.exit

Prs_ManWriteRange.exit:                           ; preds = %38, %42
  %.0.i = phi ptr [ %41, %38 ], [ %43, %42 ]
  %44 = tail call i32 (ptr, ptr, ...) @fprintf(ptr noundef %0, ptr noundef nonnull @.str.166, ptr noundef %16, ptr noundef %.0.i) #16
  br label %56

45:                                               ; preds = %3
  %46 = getelementptr i8, ptr %1, i64 200
  %.val.i = load ptr, ptr %46, align 8, !tbaa !23
  %47 = sext i32 %4 to i64
  %48 = getelementptr inbounds i32, ptr %.val.i, i64 %47
  %49 = load i32, ptr %48, align 4, !tbaa !24
  store i32 %49, ptr @Prs_CatSignals.V.1, align 4, !tbaa !22
  %50 = getelementptr i8, ptr %48, i64 4
  store ptr %50, ptr @Prs_CatSignals.V.2, align 8, !tbaa !23
  %fputc.i = tail call i32 @fputc(i32 123, ptr %0)
  %.val.i2526 = load i32, ptr @Prs_CatSignals.V.1, align 4, !tbaa !22
  %51 = icmp sgt i32 %.val.i2526, 0
  br i1 %51, label %.lr.ph, label %Prs_ManWriteVerilogArray.exit

.lr.ph:                                           ; preds = %45, %.lr.ph
  %indvars.iv = phi i64 [ %indvars.iv.next, %.lr.ph ], [ 0, %45 ]
  %.not13.i28 = phi ptr [ @.str.58, %.lr.ph ], [ @.str.2, %45 ]
  %.val14.i = load ptr, ptr @Prs_CatSignals.V.2, align 8, !tbaa !23
  %52 = getelementptr inbounds nuw i32, ptr %.val14.i, i64 %indvars.iv
  %53 = load i32, ptr %52, align 4, !tbaa !24
  %fputs.i = tail call i32 @fputs(ptr nonnull %.not13.i28, ptr %0)
  tail call fastcc void @Prs_ManWriteVerilogSignal(ptr noundef %0, ptr noundef %1, i32 noundef %53)
  %indvars.iv.next = add nuw nsw i64 %indvars.iv, 1
  %.val.i25 = load i32, ptr @Prs_CatSignals.V.1, align 4, !tbaa !22
  %54 = sext i32 %.val.i25 to i64
  %55 = icmp slt i64 %indvars.iv.next, %54
  br i1 %55, label %.lr.ph, label %Prs_ManWriteVerilogArray.exit, !llvm.loop !25

Prs_ManWriteVerilogArray.exit:                    ; preds = %.lr.ph, %45
  %fputc6.i = tail call i32 @fputc(i32 125, ptr %0)
  br label %56

default.unreachable:                              ; preds = %3
  unreachable

56:                                               ; preds = %8, %Prs_ManWriteVerilogArray.exit, %Prs_ManWriteRange.exit, %6
  ret void
}